target datalayout = "e-m:e-p270:32:32-p271:32:32-p272:64:64-i64:64-i128:128-f80:128-n8:16:32:64-S128"
target triple = "x86_64-pc-linux-gnu"

%struct.dynbuf = type { ptr, i64, i64, i64 }

@Curl_cstrdup = external global ptr, align 8
@.str = private unnamed_addr constant [1 x i8] zeroinitializer, align 1
@__const.curl_easy_escape.hex = private unnamed_addr constant [17 x i8] c"0123456789ABCDEF\00", align 16
@__const.curl_easy_escape.out = private unnamed_addr constant [3 x i8] c"%\00\00", align 1

; Function Attrs: nounwind uwtable
define ptr @curl_easy_escape(ptr noundef %0, ptr noundef %1, i32 noundef %2) #0 {
  %4 = alloca ptr, align 8
  %5 = alloca ptr, align 8
  %6 = alloca ptr, align 8
  %7 = alloca i32, align 4
  %8 = alloca i64, align 8
  %9 = alloca %struct.dynbuf, align 8
  %10 = alloca i32, align 4
  %11 = alloca i8, align 1
  %12 = alloca [17 x i8], align 16
  %13 = alloca [3 x i8], align 1
  store ptr %0, ptr %5, align 8, !tbaa !10
  store ptr %1, ptr %6, align 8, !tbaa !3
  store i32 %2, ptr %7, align 4, !tbaa !8
  call void @llvm.lifetime.start.p0(i64 8, ptr %8) #5
  call void @llvm.lifetime.start.p0(i64 32, ptr %9) #5
  %14 = load ptr, ptr %6, align 8, !tbaa !3
  %15 = icmp ne ptr %14, null
  br i1 %15, label %16, label %19

16:                                               ; preds = %3
  %17 = load i32, ptr %7, align 4, !tbaa !8
  %18 = icmp slt i32 %17, 0
  br i1 %18, label %19, label %20

19:                                               ; preds = %16, %3
  store ptr null, ptr %4, align 8
  store i32 1, ptr %10, align 4
  br label %121

20:                                               ; preds = %16
  %21 = load i32, ptr %7, align 4, !tbaa !8
  %22 = icmp ne i32 %21, 0
  br i1 %22, label %23, label %26

23:                                               ; preds = %20
  %24 = load i32, ptr %7, align 4, !tbaa !8
  %25 = sext i32 %24 to i64
  br label %29

26:                                               ; preds = %20
  %27 = load ptr, ptr %6, align 8, !tbaa !3
  %28 = call i64 @strlen(ptr noundef %27) #6
  br label %29

29:                                               ; preds = %26, %23
  %30 = phi i64 [ %25, %23 ], [ %28, %26 ]
  store i64 %30, ptr %8, align 8, !tbaa !11
  %31 = load i64, ptr %8, align 8, !tbaa !11
  %32 = icmp ne i64 %31, 0
  br i1 %32, label %36, label %33

33:                                               ; preds = %29
  %34 = load ptr, ptr @Curl_cstrdup, align 8, !tbaa !10
  %35 = call ptr %34(ptr noundef @.str)
  store ptr %35, ptr %4, align 8
  store i32 1, ptr %10, align 4
  br label %121

36:                                               ; preds = %29
  %37 = load i64, ptr %8, align 8, !tbaa !11
  %38 = mul i64 %37, 3
  %39 = add i64 %38, 1
  call void @Curl_dyn_init(ptr noundef %9, i64 noundef %39)
  br label %40

40:                                               ; preds = %118, %36
  %41 = load i64, ptr %8, align 8, !tbaa !11
  %42 = add i64 %41, -1
  store i64 %42, ptr %8, align 8, !tbaa !11
  %43 = icmp ne i64 %41, 0
  br i1 %43, label %44, label %119

44:                                               ; preds = %40
  call void @llvm.lifetime.start.p0(i64 1, ptr %11) #5
  %45 = load ptr, ptr %6, align 8, !tbaa !3
  %46 = getelementptr inbounds nuw i8, ptr %45, i32 1
  store ptr %46, ptr %6, align 8, !tbaa !3
  %47 = load i8, ptr %45, align 1, !tbaa !13
  store i8 %47, ptr %11, align 1, !tbaa !13
  %48 = load i8, ptr %11, align 1, !tbaa !13
  %49 = zext i8 %48 to i32
  %50 = icmp sge i32 %49, 48
  br i1 %50, label %51, label %55

51:                                               ; preds = %44
  %52 = load i8, ptr %11, align 1, !tbaa !13
  %53 = zext i8 %52 to i32
  %54 = icmp sle i32 %53, 57
  br i1 %54, label %87, label %55

55:                                               ; preds = %51, %44
  %56 = load i8, ptr %11, align 1, !tbaa !13
  %57 = zext i8 %56 to i32
  %58 = icmp sge i32 %57, 97
  br i1 %58, label %59, label %63

59:                                               ; preds = %55
  %60 = load i8, ptr %11, align 1, !tbaa !13
  %61 = zext i8 %60 to i32
  %62 = icmp sle i32 %61, 122
  br i1 %62, label %87, label %63

63:                                               ; preds = %59, %55
  %64 = load i8, ptr %11, align 1, !tbaa !13
  %65 = zext i8 %64 to i32
  %66 = icmp sge i32 %65, 65
  br i1 %66, label %67, label %71

67:                                               ; preds = %63
  %68 = load i8, ptr %11, align 1, !tbaa !13
  %69 = zext i8 %68 to i32
  %70 = icmp sle i32 %69, 90
  br i1 %70, label %87, label %71

71:                                               ; preds = %67, %63
  %72 = load i8, ptr %11, align 1, !tbaa !13
  %73 = zext i8 %72 to i32
  %74 = icmp eq i32 %73, 45
  br i1 %74, label %87, label %75

75:                                               ; preds = %71
  %76 = load i8, ptr %11, align 1, !tbaa !13
  %77 = zext i8 %76 to i32
  %78 = icmp eq i32 %77, 46
  br i1 %78, label %87, label %79

79:                                               ; preds = %75
  %80 = load i8, ptr %11, align 1, !tbaa !13
  %81 = zext i8 %80 to i32
  %82 = icmp eq i32 %81, 95
  br i1 %82, label %87, label %83

83:                                               ; preds = %79
  %84 = load i8, ptr %11, align 1, !tbaa !13
  %85 = zext i8 %84 to i32
  %86 = icmp eq i32 %85, 126
  br i1 %86, label %87, label %92

87:                                               ; preds = %83, %79, %75, %71, %67, %59, %51
  %88 = call i32 @Curl_dyn_addn(ptr noundef %9, ptr noundef %11, i64 noundef 1)
  %89 = icmp ne i32 %88, 0
  br i1 %89, label %90, label %91

90:                                               ; preds = %87
  store ptr null, ptr %4, align 8
  store i32 1, ptr %10, align 4
  br label %116

91:                                               ; preds = %87
  br label %115

92:                                               ; preds = %83
  call void @llvm.lifetime.start.p0(i64 17, ptr %12) #5
  call void @llvm.memcpy.p0.p0.i64(ptr align 16 %12, ptr align 16 @__const.curl_easy_escape.hex, i64 17, i1 false)
  call void @llvm.lifetime.start.p0(i64 3, ptr %13) #5
  call void @llvm.memcpy.p0.p0.i64(ptr align 1 %13, ptr align 1 @__const.curl_easy_escape.out, i64 3, i1 false)
  %93 = load i8, ptr %11, align 1, !tbaa !13
  %94 = zext i8 %93 to i32
  %95 = ashr i32 %94, 4
  %96 = sext i32 %95 to i64
  %97 = getelementptr inbounds [17 x i8], ptr %12, i64 0, i64 %96
  %98 = load i8, ptr %97, align 1, !tbaa !13
  %99 = getelementptr inbounds [3 x i8], ptr %13, i64 0, i64 1
  store i8 %98, ptr %99, align 1, !tbaa !13
  %100 = load i8, ptr %11, align 1, !tbaa !13
  %101 = zext i8 %100 to i32
  %102 = and i32 %101, 15
  %103 = sext i32 %102 to i64
  %104 = getelementptr inbounds [17 x i8], ptr %12, i64 0, i64 %103
  %105 = load i8, ptr %104, align 1, !tbaa !13
  %106 = getelementptr inbounds [3 x i8], ptr %13, i64 0, i64 2
  store i8 %105, ptr %106, align 1, !tbaa !13
  %107 = getelementptr inbounds [3 x i8], ptr %13, i64 0, i64 0
  %108 = call i32 @Curl_dyn_addn(ptr noundef %9, ptr noundef %107, i64 noundef 3)
  %109 = icmp ne i32 %108, 0
  br i1 %109, label %110, label %111

110:                                              ; preds = %92
  store ptr null, ptr %4, align 8
  store i32 1, ptr %10, align 4
  br label %112

111:                                              ; preds = %92
  store i32 0, ptr %10, align 4
  br label %112

112:                                              ; preds = %111, %110
  call void @llvm.lifetime.end.p0(i64 3, ptr %13) #5
  call void @llvm.lifetime.end.p0(i64 17, ptr %12) #5
  %113 = load i32, ptr %10, align 4
  switch i32 %113, label %116 [
    i32 0, label %114
  ]

114:                                              ; preds = %112
  br label %115

115:                                              ; preds = %114, %91
  store i32 0, ptr %10, align 4
  br label %116

116:                                              ; preds = %115, %112, %90
  call void @llvm.lifetime.end.p0(i64 1, ptr %11) #5
  %117 = load i32, ptr %10, align 4
  switch i32 %117, label %121 [
    i32 0, label %118
  ]

118:                                              ; preds = %116
  br label %40, !llvm.loop !14

119:                                              ; preds = %40
  %120 = call ptr @Curl_dyn_ptr(ptr noundef %9)
  store ptr %120, ptr %4, align 8
  store i32 1, ptr %10, align 4
  br label %121

121:                                              ; preds = %119, %116, %33, %19
  call void @llvm.lifetime.end.p0(i64 32, ptr %9) #5
  call void @llvm.lifetime.end.p0(i64 8, ptr %8) #5
  %122 = load ptr, ptr %4, align 8
  ret ptr %122
}