; Function Attrs: nounwind uwtable
define ptr @curl_easy_escape(ptr readnone captures(none) %0, ptr noundef readonly %1, i32 noundef %2) local_unnamed_addr #0 {
  %4 = alloca %struct.dynbuf, align 8
  %5 = alloca i8, align 1
  %6 = alloca [3 x i8], align 1
  call void @llvm.lifetime.start.p0(i64 32, ptr nonnull %4) #5
  %7 = icmp eq ptr %1, null
  %8 = icmp slt i32 %2, 0
  %or.cond = or i1 %7, %8
  br i1 %or.cond, label %43, label %9

9:                                                ; preds = %3
  %.not = icmp eq i32 %2, 0
  br i1 %.not, label %11, label %.thread

.thread:                                          ; preds = %9
  %10 = zext nneg i32 %2 to i64
  br label %.lr.ph

11:                                               ; preds = %9
  %12 = tail call i64 @strlen(ptr noundef nonnull dereferenceable(1) %1) #6
  %.not41 = icmp eq i64 %12, 0
  br i1 %.not41, label %13, label %.lr.ph

13:                                               ; preds = %11
  %14 = load ptr, ptr @Curl_cstrdup, align 8, !tbaa !3
  %15 = tail call ptr %14(ptr noundef nonnull @.str) #5
  br label %43

.lr.ph:                                           ; preds = %11, %.thread
  %16 = phi i64 [ %10, %.thread ], [ %12, %11 ]
  %17 = mul i64 %16, 3
  %18 = add i64 %17, 1
  call void @Curl_dyn_init(ptr noundef nonnull %4, i64 noundef %18) #5
  %19 = getelementptr inbounds nuw i8, ptr %6, i64 1
  %20 = getelementptr inbounds nuw i8, ptr %6, i64 2
  br label %21

21:                                               ; preds = %.lr.ph, %.critedge
  %.in = phi i64 [ %16, %.lr.ph ], [ %22, %.critedge ]
  %.03750 = phi ptr [ %1, %.lr.ph ], [ %23, %.critedge ]
  %22 = add i64 %.in, -1
  call void @llvm.lifetime.start.p0(i64 1, ptr nonnull %5) #5
  %23 = getelementptr inbounds nuw i8, ptr %.03750, i64 1
  %24 = load i8, ptr %.03750, align 1, !tbaa !7
  %.fr47 = freeze i8 %24
  store i8 %.fr47, ptr %5, align 1, !tbaa !7
  %25 = add i8 %.fr47, -48
  %or.cond5 = icmp ult i8 %25, 10
  %26 = and i8 %.fr47, -33
  %27 = add i8 %26, -65
  %28 = icmp ult i8 %27, 26
  %or.cond48 = or i1 %or.cond5, %28
  br i1 %or.cond48, label %29, label %switch.early.test

switch.early.test:                                ; preds = %21
  switch i8 %.fr47, label %31 [
    i8 126, label %29
    i8 95, label %29
    i8 46, label %29
    i8 45, label %29
  ]

29:                                               ; preds = %switch.early.test, %switch.early.test, %switch.early.test, %switch.early.test, %21
  %30 = call i32 @Curl_dyn_addn(ptr noundef nonnull %4, ptr noundef nonnull %5, i64 noundef 1) #5
  %.not44 = icmp eq i32 %30, 0
  br i1 %.not44, label %.critedge, label %41

31:                                               ; preds = %switch.early.test
  call void @llvm.lifetime.start.p0(i64 3, ptr nonnull %6) #5
  store i8 37, ptr %6, align 1
  %32 = lshr i8 %.fr47, 4
  %33 = zext nneg i8 %32 to i64
  %34 = getelementptr inbounds nuw [17 x i8], ptr @__const.curl_easy_escape.hex, i64 0, i64 %33
  %35 = load i8, ptr %34, align 1, !tbaa !7
  store i8 %35, ptr %19, align 1, !tbaa !7
  %36 = and i8 %.fr47, 15
  %37 = zext nneg i8 %36 to i64
  %38 = getelementptr inbounds nuw [17 x i8], ptr @__const.curl_easy_escape.hex, i64 0, i64 %37
  %39 = load i8, ptr %38, align 1, !tbaa !7
  store i8 %39, ptr %20, align 1, !tbaa !7
  %40 = call i32 @Curl_dyn_addn(ptr noundef nonnull %4, ptr noundef nonnull %6, i64 noundef 3) #5
  %.not43 = icmp eq i32 %40, 0
  call void @llvm.lifetime.end.p0(i64 3, ptr nonnull %6) #5
  br i1 %.not43, label %.critedge, label %41

.critedge:                                        ; preds = %31, %29
  call void @llvm.lifetime.end.p0(i64 1, ptr nonnull %5) #5
  %.not42 = icmp eq i64 %22, 0
  br i1 %.not42, label %._crit_edge, label %21

41:                                               ; preds = %29, %31
  call void @llvm.lifetime.end.p0(i64 1, ptr nonnull %5) #5
  br label %43, !llvm.loop !8

._crit_edge:                                      ; preds = %.critedge
  %42 = call ptr @Curl_dyn_ptr(ptr noundef nonnull %4) #5
  br label %43

43:                                               ; preds = %41, %3, %._crit_edge, %13
  %.035 = phi ptr [ null, %41 ], [ %42, %._crit_edge ], [ %15, %13 ], [ null, %3 ]
  call void @llvm.lifetime.end.p0(i64 32, ptr nonnull %4) #5
  ret ptr %.035
}